target datalayout = "e-m:e-p270:32:32-p271:32:32-p272:64:64-i64:64-i128:128-f80:128-n8:16:32:64-S128"
target triple = "x86_64-pc-linux-gnu"

%struct._value_string = type { i32, ptr }

@syntax_names = internal global <{ { i32, [4 x i8], ptr }, [128 x { i32, [4 x i8], ptr }] }> <{ { i32, [4 x i8], ptr } { i32 0, [4 x i8] zeroinitializer, ptr @.str.43 }, [128 x { i32, [4 x i8], ptr }] zeroinitializer }>, align 16

; Function Attrs: nounwind null_pointer_is_valid sspstrong uwtable
define internal void @ber_add_syntax_name(ptr noundef %0, ptr noundef %1, ptr noundef %2) #5 {
  %4 = alloca ptr, align 8
  %5 = alloca ptr, align 8
  %6 = alloca ptr, align 8
  %7 = alloca ptr, align 8
  store ptr %0, ptr %4, align 8
  store ptr %1, ptr %5, align 8
  store ptr %2, ptr %6, align 8
  call void @llvm.lifetime.start.p0(i64 8, ptr %7) #12
  %8 = load ptr, ptr %6, align 8
  store ptr %8, ptr %7, align 8
  %9 = load ptr, ptr %7, align 8
  %10 = load i32, ptr %9, align 4
  %11 = icmp ult i32 %10, 128
  br i1 %11, label %12, label %29

12:                                               ; preds = %3
  %13 = load ptr, ptr %7, align 8
  %14 = load i32, ptr %13, align 4
  %15 = load ptr, ptr %7, align 8
  %16 = load i32, ptr %15, align 4
  %17 = zext i32 %16 to i64
  %18 = getelementptr [129 x %struct._value_string], ptr @syntax_names, i64 0, i64 %17
  %19 = getelementptr inbounds nuw %struct._value_string, ptr %18, i32 0, i32 0
  store i32 %14, ptr %19, align 16
  %20 = load ptr, ptr %4, align 8
  %21 = load ptr, ptr %7, align 8
  %22 = load i32, ptr %21, align 4
  %23 = zext i32 %22 to i64
  %24 = getelementptr [129 x %struct._value_string], ptr @syntax_names, i64 0, i64 %23
  %25 = getelementptr inbounds nuw %struct._value_string, ptr %24, i32 0, i32 1
  store ptr %20, ptr %25, align 8
  %26 = load ptr, ptr %7, align 8
  %27 = load i32, ptr %26, align 4
  %28 = add i32 %27, 1
  store i32 %28, ptr %26, align 4
  br label %29

29:                                               ; preds = %12, %3
  call void @llvm.lifetime.end.p0(i64 8, ptr %7) #12
  ret void
}