; Function Attrs: mustprogress nofree norecurse nosync nounwind null_pointer_is_valid sspstrong willreturn memory(write, argmem: readwrite, inaccessiblemem: none) uwtable
define internal void @ber_add_syntax_name(ptr noundef %0, ptr readnone captures(none) %1, ptr noundef captures(none) %2) #8 {
  %4 = load i32, ptr %2, align 4
  %5 = icmp ult i32 %4, 128
  br i1 %5, label %6, label %14

6:                                                ; preds = %3
  %7 = zext nneg i32 %4 to i64
  %8 = getelementptr [129 x %struct._value_string], ptr @syntax_names, i64 0, i64 %7
  store i32 %4, ptr %8, align 16
  %9 = load i32, ptr %2, align 4
  %10 = zext i32 %9 to i64
  %11 = getelementptr [129 x %struct._value_string], ptr @syntax_names, i64 0, i64 %10, i32 1
  store ptr %0, ptr %11, align 8
  %12 = load i32, ptr %2, align 4
  %13 = add i32 %12, 1
  store i32 %13, ptr %2, align 4
  br label %14

14:                                               ; preds = %6, %3
  ret void
}